
BlinkyBall.elf:     file format elf32-avr

Sections:
Idx Name          Size      VMA       LMA       File off  Algn
  0 .text         000001b2  00000000  00000000  00000094  2**1
                  CONTENTS, ALLOC, LOAD, READONLY, CODE
  1 .data         00000004  00800060  000001b2  00000246  2**0
                  CONTENTS, ALLOC, LOAD, DATA
  2 .bss          00000003  00800064  00800064  0000024a  2**0
                  ALLOC
  3 .noinit       00000001  00800067  00800067  0000024a  2**0
                  ALLOC

Disassembly of section .text:

00000000 <__vectors>:
   0:	09 c0       	rjmp	.+18     	; 0x14 <__ctors_end>
   2:	c6 c0       	rjmp	.+396    	; 0x190 <__vector_1>
   4:	42 c0       	rjmp	.+132    	; 0x8a <__bad_interrupt>
   6:	ad c0       	rjmp	.+346    	; 0x162 <__vector_3>
   8:	40 c0       	rjmp	.+128    	; 0x8a <__bad_interrupt>
   a:	3f c0       	rjmp	.+126    	; 0x8a <__bad_interrupt>
   c:	3e c0       	rjmp	.+124    	; 0x8a <__bad_interrupt>
   e:	3d c0       	rjmp	.+122    	; 0x8a <__bad_interrupt>
  10:	3c c0       	rjmp	.+120    	; 0x8a <__bad_interrupt>
  12:	3b c0       	rjmp	.+118    	; 0x8a <__bad_interrupt>

00000014 <__ctors_end>:
  14:	11 24       	eor	r1, r1
  16:	1f be       	out	0x3f, r1	; 63
  18:	cf e9       	ldi	r28, 0x9F	; 159
  1a:	cd bf       	out	0x3d, r28	; 61

0000001c <init>:
  1c:	80 e8       	ldi	r24, 0x80	; 128
  1e:	88 b9       	out	0x08, r24	; 8
  20:	8f e3       	ldi	r24, 0x3F	; 63
  22:	84 bb       	out	0x14, r24	; 20
  24:	04 b6       	in	r0, 0x34	; 52
  26:	00 fc       	sbrc	r0, 0
  28:	0c c0       	rjmp	.+24     	; 0x42 <__SREG__+0x3>
  2a:	04 b6       	in	r0, 0x34	; 52
  2c:	01 fe       	sbrs	r0, 1
  2e:	0b c0       	rjmp	.+22     	; 0x46 <__SREG__+0x7>
  30:	80 91 67 00 	lds	r24, 0x0067
  34:	8f 5f       	subi	r24, 0xFF	; 255
  36:	80 93 67 00 	sts	0x0067, r24
  3a:	80 91 67 00 	lds	r24, 0x0067
  3e:	84 30       	cpi	r24, 0x04	; 4
  40:	10 f0       	brcs	.+4      	; 0x46 <__SREG__+0x7>
  42:	10 92 67 00 	sts	0x0067, r1
  46:	14 be       	out	0x34, r1	; 52
  48:	8f e1       	ldi	r24, 0x1F	; 31
  4a:	88 bb       	out	0x18, r24	; 24
  4c:	8d e1       	ldi	r24, 0x1D	; 29
  4e:	87 bb       	out	0x17, r24	; 23
  50:	81 e0       	ldi	r24, 0x01	; 1
  52:	83 bf       	out	0x33, r24	; 51
  54:	82 e0       	ldi	r24, 0x02	; 2
  56:	89 bf       	out	0x39, r24	; 57
  58:	85 bf       	out	0x35, r24	; 53
  5a:	80 e4       	ldi	r24, 0x40	; 64
  5c:	8b bf       	out	0x3b, r24	; 59
  5e:	78 94       	sei

00000060 <__do_copy_data>:
  60:	10 e0       	ldi	r17, 0x00	; 0
  62:	a0 e6       	ldi	r26, 0x60	; 96
  64:	b0 e0       	ldi	r27, 0x00	; 0
  66:	e2 eb       	ldi	r30, 0xB2	; 178
  68:	f1 e0       	ldi	r31, 0x01	; 1
  6a:	02 c0       	rjmp	.+4      	; 0x70 <.do_copy_data_start>

0000006c <.do_copy_data_loop>:
  6c:	05 90       	lpm	r0, Z+
  6e:	0d 92       	st	X+, r0

00000070 <.do_copy_data_start>:
  70:	a4 36       	cpi	r26, 0x64	; 100
  72:	b1 07       	cpc	r27, r17
  74:	d9 f7       	brne	.-10     	; 0x6c <.do_copy_data_loop>

00000076 <__do_clear_bss>:
  76:	10 e0       	ldi	r17, 0x00	; 0
  78:	a4 e6       	ldi	r26, 0x64	; 100
  7a:	b0 e0       	ldi	r27, 0x00	; 0
  7c:	01 c0       	rjmp	.+2      	; 0x80 <.do_clear_bss_start>

0000007e <.do_clear_bss_loop>:
  7e:	1d 92       	st	X+, r1

00000080 <.do_clear_bss_start>:
  80:	a7 36       	cpi	r26, 0x67	; 103
  82:	b1 07       	cpc	r27, r17
  84:	e1 f7       	brne	.-8      	; 0x7e <.do_clear_bss_loop>
  86:	53 d0       	rcall	.+166    	; 0x12e <main>
  88:	92 c0       	rjmp	.+292    	; 0x1ae <_exit>

0000008a <__bad_interrupt>:
  8a:	ba cf       	rjmp	.-140    	; 0x0 <__vectors>

0000008c <delay>:
  8c:	90 93 65 00 	sts	0x0065, r25
  90:	80 93 64 00 	sts	0x0064, r24
  94:	20 e6       	ldi	r18, 0x60	; 96
  96:	02 c0       	rjmp	.+4      	; 0x9c <delay+0x10>
  98:	25 bf       	out	0x35, r18	; 53
  9a:	88 95       	sleep
  9c:	80 91 64 00 	lds	r24, 0x0064
  a0:	90 91 65 00 	lds	r25, 0x0065
  a4:	89 2b       	or	r24, r25
  a6:	c1 f7       	brne	.-16     	; 0x98 <delay+0xc>
  a8:	08 95       	ret

000000aa <sleep>:
  aa:	9b e1       	ldi	r25, 0x1B	; 27
  ac:	98 bb       	out	0x18, r25	; 24
  ae:	93 e0       	ldi	r25, 0x03	; 3
  b0:	9c bf       	out	0x3c, r25	; 60
  b2:	90 bf       	out	0x30, r25	; 48
  b4:	22 e0       	ldi	r18, 0x02	; 2
  b6:	20 bf       	out	0x30, r18	; 48
  b8:	90 e7       	ldi	r25, 0x70	; 112
  ba:	95 bf       	out	0x35, r25	; 53
  bc:	88 23       	and	r24, r24
  be:	29 f0       	breq	.+10     	; 0xca <sleep+0x20>
  c0:	25 bf       	out	0x35, r18	; 53
  c2:	80 e4       	ldi	r24, 0x40	; 64
  c4:	8b bf       	out	0x3b, r24	; 59
  c6:	78 94       	sei
  c8:	01 c0       	rjmp	.+2      	; 0xcc <sleep+0x22>
  ca:	f8 94       	cli
  cc:	88 95       	sleep
  ce:	a6 df       	rcall	.-180    	; 0x1c <init>
  d0:	08 95       	ret

000000d2 <blink>:
  d2:	0f 93       	push	r16
  d4:	1f 93       	push	r17
  d6:	cf 93       	push	r28
  d8:	df 93       	push	r29
  da:	ec 01       	movw	r28, r24
  dc:	89 e1       	ldi	r24, 0x19	; 25
  de:	80 93 66 00 	sts	0x0066, r24
  e2:	13 e0       	ldi	r17, 0x03	; 3
  e4:	00 e6       	ldi	r16, 0x60	; 96
  e6:	1f 5f       	subi	r17, 0xFF	; 255
  e8:	13 30       	cpi	r17, 0x03	; 3
  ea:	08 f0       	brcs	.+2      	; 0xee <blink+0x1c>
  ec:	10 e0       	ldi	r17, 0x00	; 0
  ee:	e1 2f       	mov	r30, r17
  f0:	f0 e0       	ldi	r31, 0x00	; 0
  f2:	e0 5a       	subi	r30, 0xA0	; 160
  f4:	ff 4f       	sbci	r31, 0xFF	; 255
  f6:	80 81       	ld	r24, Z
  f8:	88 bb       	out	0x18, r24	; 24
  fa:	d0 93 65 00 	sts	0x0065, r29
  fe:	c0 93 64 00 	sts	0x0064, r28
 102:	02 c0       	rjmp	.+4      	; 0x108 <blink+0x36>
 104:	05 bf       	out	0x35, r16	; 53
 106:	88 95       	sleep
 108:	80 91 64 00 	lds	r24, 0x0064
 10c:	90 91 65 00 	lds	r25, 0x0065
 110:	89 2b       	or	r24, r25
 112:	c1 f7       	brne	.-16     	; 0x104 <blink+0x32>
 114:	80 91 66 00 	lds	r24, 0x0066
 118:	81 50       	subi	r24, 0x01	; 1
 11a:	80 93 66 00 	sts	0x0066, r24
 11e:	02 c0       	rjmp	.+4      	; 0x124 <blink+0x52>
 120:	81 e0       	ldi	r24, 0x01	; 1
 122:	c3 df       	rcall	.-122    	; 0xaa <sleep>
 124:	80 91 66 00 	lds	r24, 0x0066
 128:	88 23       	and	r24, r24
 12a:	e9 f6       	brne	.-70     	; 0xe6 <blink+0x14>
 12c:	f9 cf       	rjmp	.-14     	; 0x120 <blink+0x4e>

0000012e <main>:
 12e:	80 91 67 00 	lds	r24, 0x0067
 132:	81 30       	cpi	r24, 0x01	; 1
 134:	51 f0       	breq	.+20     	; 0x14a <main+0x1c>
 136:	81 30       	cpi	r24, 0x01	; 1
 138:	28 f0       	brcs	.+10     	; 0x144 <main+0x16>
 13a:	82 30       	cpi	r24, 0x02	; 2
 13c:	51 f0       	breq	.+20     	; 0x152 <main+0x24>
 13e:	83 30       	cpi	r24, 0x03	; 3
 140:	69 f4       	brne	.+26     	; 0x15c <main+0x2e>
 142:	0a c0       	rjmp	.+20     	; 0x158 <main+0x2a>
 144:	84 ef       	ldi	r24, 0xF4	; 244
 146:	91 e0       	ldi	r25, 0x01	; 1
 148:	02 c0       	rjmp	.+4      	; 0x14e <main+0x20>
 14a:	8e ee       	ldi	r24, 0xEE	; 238
 14c:	92 e0       	ldi	r25, 0x02	; 2
 14e:	c1 df       	rcall	.-126    	; 0xd2 <blink>
 150:	05 c0       	rjmp	.+10     	; 0x15c <main+0x2e>
 152:	8c ed       	ldi	r24, 0xDC	; 220
 154:	95 e0       	ldi	r25, 0x05	; 5
 156:	fb cf       	rjmp	.-10     	; 0x14e <main+0x20>
 158:	80 e0       	ldi	r24, 0x00	; 0
 15a:	a7 df       	rcall	.-178    	; 0xaa <sleep>
 15c:	80 e0       	ldi	r24, 0x00	; 0
 15e:	90 e0       	ldi	r25, 0x00	; 0
 160:	08 95       	ret

00000162 <__vector_3>:
 162:	1f 92       	push	r1
 164:	0f 92       	push	r0
 166:	0f b6       	in	r0, 0x3f	; 63
 168:	0f 92       	push	r0
 16a:	11 24       	eor	r1, r1
 16c:	8f 93       	push	r24
 16e:	9f 93       	push	r25
 170:	80 91 64 00 	lds	r24, 0x0064
 174:	90 91 65 00 	lds	r25, 0x0065
 178:	01 97       	sbiw	r24, 0x01	; 1
 17a:	90 93 65 00 	sts	0x0065, r25
 17e:	80 93 64 00 	sts	0x0064, r24
 182:	9f 91       	pop	r25
 184:	8f 91       	pop	r24
 186:	0f 90       	pop	r0
 188:	0f be       	out	0x3f, r0	; 63
 18a:	0f 90       	pop	r0
 18c:	1f 90       	pop	r1
 18e:	18 95       	reti

00000190 <__vector_1>:
 190:	1f 92       	push	r1
 192:	0f 92       	push	r0
 194:	0f b6       	in	r0, 0x3f	; 63
 196:	0f 92       	push	r0
 198:	11 24       	eor	r1, r1
 19a:	8f 93       	push	r24
 19c:	89 e1       	ldi	r24, 0x19	; 25
 19e:	80 93 66 00 	sts	0x0066, r24
 1a2:	8f 91       	pop	r24
 1a4:	0f 90       	pop	r0
 1a6:	0f be       	out	0x3f, r0	; 63
 1a8:	0f 90       	pop	r0
 1aa:	1f 90       	pop	r1
 1ac:	18 95       	reti

000001ae <_exit>:
 1ae:	f8 94       	cli

000001b0 <__stop_program>:
 1b0:	ff cf       	rjmp	.-2      	; 0x1b0 <__stop_program>
